; ModuleID = '12/1033.c'
source_filename = "12/1033.c"
target datalayout = "e-m:e-p270:32:32-p271:32:32-p272:64:64-i64:64-f80:128-n8:16:32:64-S128"
target triple = "x86_64-pc-linux-gnu"

@.str = private unnamed_addr constant [3 x i8] c"%d\00", align 1
@.str.1 = private unnamed_addr constant [4 x i8] c"%d\0A\00", align 1

; Function Attrs: noinline nounwind uwtable
define dso_local void @main() #0 {
  %1 = alloca i32, align 4
  %2 = alloca [16 x i32], align 16
  %3 = alloca i32, align 4
  %4 = alloca i32, align 4
  %5 = alloca i32, align 4
  %6 = alloca i32, align 4
  %7 = alloca i32, align 4
  store i32 1, i32* %1, align 4
  br label %8

8:                                                ; preds = %88, %0
  store i32 0, i32* %3, align 4
  store i32 1, i32* %4, align 4
  br label %9

9:                                                ; preds = %28, %8
  %10 = load i32, i32* %4, align 4
  %11 = sext i32 %10 to i64
  %12 = getelementptr inbounds [16 x i32], [16 x i32]* %2, i64 0, i64 %11
  %13 = call i32 (i8*, ...) @__isoc99_scanf(i8* getelementptr inbounds ([3 x i8], [3 x i8]* @.str, i64 0, i64 0), i32* %12)
  %14 = getelementptr inbounds [16 x i32], [16 x i32]* %2, i64 0, i64 1
  %15 = load i32, i32* %14, align 4
  %16 = icmp eq i32 %15, -1
  br i1 %16, label %17, label %18

17:                                               ; preds = %9
  br label %31

18:                                               ; preds = %9
  %19 = load i32, i32* %4, align 4
  %20 = sext i32 %19 to i64
  %21 = getelementptr inbounds [16 x i32], [16 x i32]* %2, i64 0, i64 %20
  %22 = load i32, i32* %21, align 4
  %23 = icmp eq i32 %22, 0
  br i1 %23, label %24, label %25

24:                                               ; preds = %18
  br label %31

25:                                               ; preds = %18
  %26 = load i32, i32* %3, align 4
  %27 = add nsw i32 %26, 1
  store i32 %27, i32* %3, align 4
  br label %28

28:                                               ; preds = %25
  %29 = load i32, i32* %4, align 4
  %30 = add nsw i32 %29, 1
  store i32 %30, i32* %4, align 4
  br label %9

31:                                               ; preds = %24, %17
  %32 = getelementptr inbounds [16 x i32], [16 x i32]* %2, i64 0, i64 1
  %33 = load i32, i32* %32, align 4
  %34 = icmp eq i32 %33, -1
  br i1 %34, label %35, label %36

35:                                               ; preds = %31
  br label %91

36:                                               ; preds = %31
  store i32 0, i32* %7, align 4
  store i32 1, i32* %5, align 4
  br label %37

37:                                               ; preds = %82, %36
  %38 = load i32, i32* %5, align 4
  %39 = load i32, i32* %3, align 4
  %40 = icmp slt i32 %38, %39
  br i1 %40, label %41, label %85

41:                                               ; preds = %37
  %42 = load i32, i32* %5, align 4
  %43 = add nsw i32 %42, 1
  store i32 %43, i32* %6, align 4
  br label %44

44:                                               ; preds = %78, %41
  %45 = load i32, i32* %6, align 4
  %46 = load i32, i32* %3, align 4
  %47 = icmp sle i32 %45, %46
  br i1 %47, label %48, label %81

48:                                               ; preds = %44
  %49 = load i32, i32* %5, align 4
  %50 = sext i32 %49 to i64
  %51 = getelementptr inbounds [16 x i32], [16 x i32]* %2, i64 0, i64 %50
  %52 = load i32, i32* %51, align 4
  %53 = load i32, i32* %6, align 4
  %54 = sext i32 %53 to i64
  %55 = getelementptr inbounds [16 x i32], [16 x i32]* %2, i64 0, i64 %54
  %56 = load i32, i32* %55, align 4
  %57 = mul nsw i32 2, %56
  %58 = icmp eq i32 %52, %57
  br i1 %58, label %59, label %62

59:                                               ; preds = %48
  %60 = load i32, i32* %7, align 4
  %61 = add nsw i32 %60, 1
  store i32 %61, i32* %7, align 4
  br label %77

62:                                               ; preds = %48
  %63 = load i32, i32* %6, align 4
  %64 = sext i32 %63 to i64
  %65 = getelementptr inbounds [16 x i32], [16 x i32]* %2, i64 0, i64 %64
  %66 = load i32, i32* %65, align 4
  %67 = load i32, i32* %5, align 4
  %68 = sext i32 %67 to i64
  %69 = getelementptr inbounds [16 x i32], [16 x i32]* %2, i64 0, i64 %68
  %70 = load i32, i32* %69, align 4
  %71 = mul nsw i32 2, %70
  %72 = icmp eq i32 %66, %71
  br i1 %72, label %73, label %76

73:                                               ; preds = %62
  %74 = load i32, i32* %7, align 4
  %75 = add nsw i32 %74, 1
  store i32 %75, i32* %7, align 4
  br label %76

76:                                               ; preds = %73, %62
  br label %77

77:                                               ; preds = %76, %59
  br label %78

78:                                               ; preds = %77
  %79 = load i32, i32* %6, align 4
  %80 = add nsw i32 %79, 1
  store i32 %80, i32* %6, align 4
  br label %44

81:                                               ; preds = %44
  br label %82

82:                                               ; preds = %81
  %83 = load i32, i32* %5, align 4
  %84 = add nsw i32 %83, 1
  store i32 %84, i32* %5, align 4
  br label %37

85:                                               ; preds = %37
  %86 = load i32, i32* %7, align 4
  %87 = call i32 (i8*, ...) @printf(i8* getelementptr inbounds ([4 x i8], [4 x i8]* @.str.1, i64 0, i64 0), i32 %86)
  br label %88

88:                                               ; preds = %85
  %89 = load i32, i32* %1, align 4
  %90 = add nsw i32 %89, 1
  store i32 %90, i32* %1, align 4
  br label %8

91:                                               ; preds = %35
  ret void
}

declare dso_local i32 @__isoc99_scanf(i8*, ...) #1

declare dso_local i32 @printf(i8*, ...) #1


!llvm.module.flags = !{!0}
!llvm.ident = !{!1}

!0 = !{i32 1, !"wchar_size", i32 4}
!1 = !{!"clang version 10.0.0-4ubuntu1 "}
