; ModuleID = 'source-C-CXX/11/1033.c'
source_filename = "source-C-CXX/11/1033.c"
target datalayout = "e-m:e-p270:32:32-p271:32:32-p272:64:64-i64:64-f80:128-n8:16:32:64-S128"
target triple = "x86_64-pc-linux-gnu"

@.str = private unnamed_addr constant [3 x i8] c"%d\00", align 1
@.str.1 = private unnamed_addr constant [4 x i8] c"%d\0A\00", align 1

; Function Attrs: nofree nounwind sspstrong uwtable
define dso_local void @main() local_unnamed_addr #0 {
  %1 = alloca [16 x i32], align 16
  %2 = bitcast [16 x i32]* %1 to i8*
  %3 = getelementptr inbounds [16 x i32], [16 x i32]* %1, i64 0, i64 1
  call void @llvm.lifetime.start.p0i8(i64 64, i8* nonnull %2) #4
  %4 = call i32 (i8*, ...) @__isoc99_scanf(i8* getelementptr inbounds ([3 x i8], [3 x i8]* @.str, i64 0, i64 0), i32* nonnull %3)
  %5 = load i32, i32* %3, align 4, !tbaa !5
  %6 = icmp eq i32 %5, -1
  br i1 %6, label %109, label %7

7:                                                ; preds = %0, %103
  %8 = phi i32 [ %107, %103 ], [ %5, %0 ]
  %9 = icmp eq i32 %8, 0
  br i1 %9, label %10, label %18

10:                                               ; preds = %26, %7
  %11 = phi i32 [ 0, %7 ], [ %27, %26 ]
  %12 = icmp ugt i32 %11, 1
  br i1 %12, label %13, label %103

13:                                               ; preds = %10
  %14 = add nuw i32 %11, 1
  %15 = zext i32 %11 to i64
  %16 = zext i32 %14 to i64
  %17 = add nsw i64 %16, -2
  br label %35

18:                                               ; preds = %7, %26
  %19 = phi i32 [ %27, %26 ], [ 0, %7 ]
  %20 = phi i64 [ %21, %26 ], [ 1, %7 ]
  %21 = add nuw i64 %20, 1
  %22 = getelementptr inbounds [16 x i32], [16 x i32]* %1, i64 0, i64 %21
  %23 = call i32 (i8*, ...) @__isoc99_scanf(i8* getelementptr inbounds ([3 x i8], [3 x i8]* @.str, i64 0, i64 0), i32* nonnull %22)
  %24 = load i32, i32* %3, align 4, !tbaa !5
  %25 = icmp eq i32 %24, -1
  br i1 %25, label %109, label %26

26:                                               ; preds = %18
  %27 = add nuw nsw i32 %19, 1
  %28 = load i32, i32* %22, align 4, !tbaa !5
  %29 = icmp eq i32 %28, 0
  br i1 %29, label %10, label %18

30:                                               ; preds = %90, %83
  %31 = phi i32 [ %85, %83 ], [ %100, %90 ]
  %32 = add nuw nsw i64 %38, 1
  %33 = icmp eq i64 %41, %15
  %34 = add i64 %36, 1
  br i1 %33, label %103, label %35, !llvm.loop !9

35:                                               ; preds = %30, %13
  %36 = phi i64 [ %34, %30 ], [ 0, %13 ]
  %37 = phi i64 [ %41, %30 ], [ 1, %13 ]
  %38 = phi i64 [ %32, %30 ], [ 2, %13 ]
  %39 = phi i32 [ %31, %30 ], [ 0, %13 ]
  %40 = sub i64 %17, %36
  %41 = add nuw nsw i64 %37, 1
  %42 = getelementptr inbounds [16 x i32], [16 x i32]* %1, i64 0, i64 %37
  %43 = load i32, i32* %42, align 4, !tbaa !5
  %44 = shl nsw i32 %43, 1
  %45 = icmp ult i64 %40, 8
  br i1 %45, label %87, label %46

46:                                               ; preds = %35
  %47 = and i64 %40, -8
  %48 = add i64 %38, %47
  %49 = insertelement <4 x i32> <i32 poison, i32 0, i32 0, i32 0>, i32 %39, i32 0
  %50 = insertelement <4 x i32> poison, i32 %43, i32 0
  %51 = shufflevector <4 x i32> %50, <4 x i32> poison, <4 x i32> zeroinitializer
  %52 = insertelement <4 x i32> poison, i32 %43, i32 0
  %53 = shufflevector <4 x i32> %52, <4 x i32> poison, <4 x i32> zeroinitializer
  %54 = insertelement <4 x i32> poison, i32 %44, i32 0
  %55 = shufflevector <4 x i32> %54, <4 x i32> poison, <4 x i32> zeroinitializer
  %56 = insertelement <4 x i32> poison, i32 %44, i32 0
  %57 = shufflevector <4 x i32> %56, <4 x i32> poison, <4 x i32> zeroinitializer
  br label %58

58:                                               ; preds = %58, %46
  %59 = phi i64 [ 0, %46 ], [ %81, %58 ]
  %60 = phi <4 x i32> [ %49, %46 ], [ %79, %58 ]
  %61 = phi <4 x i32> [ zeroinitializer, %46 ], [ %80, %58 ]
  %62 = add i64 %38, %59
  %63 = getelementptr inbounds [16 x i32], [16 x i32]* %1, i64 0, i64 %62
  %64 = bitcast i32* %63 to <4 x i32>*
  %65 = load <4 x i32>, <4 x i32>* %64, align 4, !tbaa !5
  %66 = getelementptr inbounds i32, i32* %63, i64 4
  %67 = bitcast i32* %66 to <4 x i32>*
  %68 = load <4 x i32>, <4 x i32>* %67, align 4, !tbaa !5
  %69 = shl nsw <4 x i32> %65, <i32 1, i32 1, i32 1, i32 1>
  %70 = shl nsw <4 x i32> %68, <i32 1, i32 1, i32 1, i32 1>
  %71 = icmp eq <4 x i32> %51, %69
  %72 = icmp eq <4 x i32> %53, %70
  %73 = icmp eq <4 x i32> %65, %55
  %74 = icmp eq <4 x i32> %68, %57
  %75 = select <4 x i1> %71, <4 x i1> <i1 true, i1 true, i1 true, i1 true>, <4 x i1> %73
  %76 = select <4 x i1> %72, <4 x i1> <i1 true, i1 true, i1 true, i1 true>, <4 x i1> %74
  %77 = zext <4 x i1> %75 to <4 x i32>
  %78 = zext <4 x i1> %76 to <4 x i32>
  %79 = add <4 x i32> %60, %77
  %80 = add <4 x i32> %61, %78
  %81 = add nuw i64 %59, 8
  %82 = icmp eq i64 %81, %47
  br i1 %82, label %83, label %58, !llvm.loop !11

83:                                               ; preds = %58
  %84 = add <4 x i32> %80, %79
  %85 = call i32 @llvm.vector.reduce.add.v4i32(<4 x i32> %84)
  %86 = icmp eq i64 %40, %47
  br i1 %86, label %30, label %87

87:                                               ; preds = %35, %83
  %88 = phi i64 [ %38, %35 ], [ %48, %83 ]
  %89 = phi i32 [ %39, %35 ], [ %85, %83 ]
  br label %90

90:                                               ; preds = %87, %90
  %91 = phi i64 [ %101, %90 ], [ %88, %87 ]
  %92 = phi i32 [ %100, %90 ], [ %89, %87 ]
  %93 = getelementptr inbounds [16 x i32], [16 x i32]* %1, i64 0, i64 %91
  %94 = load i32, i32* %93, align 4, !tbaa !5
  %95 = shl nsw i32 %94, 1
  %96 = icmp eq i32 %43, %95
  %97 = icmp eq i32 %94, %44
  %98 = select i1 %96, i1 true, i1 %97
  %99 = zext i1 %98 to i32
  %100 = add nsw i32 %92, %99
  %101 = add nuw nsw i64 %91, 1
  %102 = icmp eq i64 %101, %16
  br i1 %102, label %30, label %90, !llvm.loop !13

103:                                              ; preds = %30, %10
  %104 = phi i32 [ 0, %10 ], [ %31, %30 ]
  %105 = call i32 (i8*, ...) @printf(i8* nonnull dereferenceable(1) getelementptr inbounds ([4 x i8], [4 x i8]* @.str.1, i64 0, i64 0), i32 %104)
  call void @llvm.lifetime.end.p0i8(i64 64, i8* nonnull %2) #4
  call void @llvm.lifetime.start.p0i8(i64 64, i8* nonnull %2) #4
  %106 = call i32 (i8*, ...) @__isoc99_scanf(i8* getelementptr inbounds ([3 x i8], [3 x i8]* @.str, i64 0, i64 0), i32* nonnull %3)
  %107 = load i32, i32* %3, align 4, !tbaa !5
  %108 = icmp eq i32 %107, -1
  br i1 %108, label %109, label %7

109:                                              ; preds = %103, %18, %0
  call void @llvm.lifetime.end.p0i8(i64 64, i8* nonnull %2) #4
  ret void
}

; Function Attrs: argmemonly mustprogress nofree nosync nounwind willreturn
declare void @llvm.lifetime.start.p0i8(i64 immarg, i8* nocapture) #1

; Function Attrs: nofree nounwind
declare noundef i32 @__isoc99_scanf(i8* nocapture noundef readonly, ...) local_unnamed_addr #2

; Function Attrs: nofree nounwind
declare noundef i32 @printf(i8* nocapture noundef readonly, ...) local_unnamed_addr #2

; Function Attrs: argmemonly mustprogress nofree nosync nounwind willreturn
declare void @llvm.lifetime.end.p0i8(i64 immarg, i8* nocapture) #1

; Function Attrs: nofree nosync nounwind readnone willreturn
declare i32 @llvm.vector.reduce.add.v4i32(<4 x i32>) #3


!llvm.module.flags = !{!0, !1, !2, !3}
!llvm.ident = !{!4}

!0 = !{i32 1, !"wchar_size", i32 4}
!1 = !{i32 7, !"PIC Level", i32 2}
!2 = !{i32 7, !"PIE Level", i32 2}
!3 = !{i32 7, !"uwtable", i32 1}
!4 = !{!"clang version 13.0.0"}
!5 = !{!6, !6, i64 0}
!6 = !{!"int", !7, i64 0}
!7 = !{!"omnipotent char", !8, i64 0}
!8 = !{!"Simple C/C++ TBAA"}
!9 = distinct !{!9, !10}
!10 = !{!"llvm.loop.mustprogress"}
!11 = distinct !{!11, !10, !12}
!12 = !{!"llvm.loop.isvectorized", i32 1}
!13 = distinct !{!13, !10, !14, !12}
!14 = !{!"llvm.loop.unroll.runtime.disable"}
